; Function Attrs: nounwind sspstrong uwtable
define dso_local noundef nonnull ptr @dln_load(ptr noundef %0) local_unnamed_addr #0 {
  %2 = tail call fastcc ptr @dln_open(ptr noundef %0)
  %3 = tail call fastcc i64 @dln_sym_func(ptr noundef %2, ptr noundef nonnull @.str)
  %4 = inttoptr i64 %3 to ptr
  %5 = tail call i64 %4() #9
  %.not = icmp eq i64 %5, 0
  br i1 %.not, label %14, label %6

6:                                                ; preds = %1
  %7 = tail call ptr @getenv(ptr noundef nonnull @.str.6) #9
  %8 = icmp eq ptr %7, null
  br i1 %8, label %abi_check_enabled_p.exit.thread, label %9

9:                                                ; preds = %6
  %10 = load i8, ptr %7, align 1, !tbaa !7
  %11 = icmp eq i8 %10, 48
  br i1 %11, label %abi_check_enabled_p.exit, label %abi_check_enabled_p.exit.thread

abi_check_enabled_p.exit:                         ; preds = %9
  %12 = getelementptr i8, ptr %7, i64 1
  %13 = load i8, ptr %12, align 1, !tbaa !7
  %.not8 = icmp eq i8 %13, 0
  br i1 %.not8, label %14, label %abi_check_enabled_p.exit.thread

abi_check_enabled_p.exit.thread:                  ; preds = %9, %6, %abi_check_enabled_p.exit
  tail call void (ptr, ...) @rb_loaderror(ptr noundef nonnull @.str.1, ptr noundef %0) #10
  unreachable

14:                                               ; preds = %abi_check_enabled_p.exit, %1
  %15 = load i8, ptr %0, align 1, !tbaa !7
  %.not20.i = icmp eq i8 %15, 0
  br i1 %.not20.i, label %init_funcname_len.exit, label %.lr.ph.i

.lr.ph.i:                                         ; preds = %14, %.lr.ph.i
  %16 = phi i8 [ %21, %.lr.ph.i ], [ %15, %14 ]
  %.023.i = phi ptr [ %20, %.lr.ph.i ], [ %0, %14 ]
  %.01522.i = phi ptr [ %.2.i, %.lr.ph.i ], [ null, %14 ]
  %.01621.i = phi ptr [ %.117.i, %.lr.ph.i ], [ %0, %14 ]
  %17 = icmp ne i8 %16, 46
  %18 = icmp ne ptr %.01522.i, null
  %or.cond.i = select i1 %17, i1 true, i1 %18
  %spec.select.i = select i1 %or.cond.i, ptr %.01522.i, ptr %.023.i
  %19 = icmp eq i8 %16, 47
  %20 = getelementptr i8, ptr %.023.i, i64 1
  %.117.i = select i1 %19, ptr %20, ptr %.01621.i
  %.2.i = select i1 %19, ptr null, ptr %spec.select.i
  %21 = load i8, ptr %20, align 1, !tbaa !7
  %.not.i = icmp eq i8 %21, 0
  br i1 %.not.i, label %init_funcname_len.exit, label %.lr.ph.i, !llvm.loop !10

init_funcname_len.exit:                           ; preds = %.lr.ph.i, %14
  %.016.lcssa.i = phi ptr [ %0, %14 ], [ %.117.i, %.lr.ph.i ]
  %.015.lcssa.i = phi ptr [ null, %14 ], [ %.2.i, %.lr.ph.i ]
  %.0.lcssa.i = phi ptr [ %0, %14 ], [ %20, %.lr.ph.i ]
  %.not19.i = icmp eq ptr %.015.lcssa.i, null
  %22 = select i1 %.not19.i, ptr %.0.lcssa.i, ptr %.015.lcssa.i
  %23 = ptrtoint ptr %22 to i64
  %24 = ptrtoint ptr %.016.lcssa.i to i64
  %25 = sub i64 %23, %24
  %26 = add i64 %25, 6
  %27 = alloca i8, i64 %26, align 16
  call void @llvm.memcpy.p0.p0.i64(ptr noundef nonnull align 16 dereferenceable(5) %27, ptr noundef nonnull align 1 dereferenceable(5) @.str.2, i64 noundef range(i64 1, 0) 5, i1 noundef false) #9
  %.not.i.i = icmp eq ptr %22, %.016.lcssa.i
  br i1 %.not.i.i, label %concat_funcname.exit, label %28

28:                                               ; preds = %init_funcname_len.exit
  %29 = getelementptr i8, ptr %27, i64 5
  call void @llvm.memcpy.p0.p0.i64(ptr noundef nonnull align 1 %29, ptr noundef nonnull readonly align 1 %.016.lcssa.i, i64 noundef range(i64 1, 0) %25, i1 noundef false) #9
  br label %concat_funcname.exit

concat_funcname.exit:                             ; preds = %init_funcname_len.exit, %28
  %30 = getelementptr i8, ptr %27, i64 %25
  %31 = getelementptr i8, ptr %30, i64 5
  store i8 0, ptr %31, align 1, !tbaa !7
  %32 = call fastcc i64 @dln_sym_func(ptr noundef %2, ptr noundef nonnull %27)
  %33 = inttoptr i64 %32 to ptr
  call void %33() #9
  ret ptr %2
}